

Microchip Technology PIC LITE Macro Assembler V1.33 build 59893 
                                                                                               Thu Oct 22 22:04:37 2015

Microchip Technology Omniscient Code Generator (Lite mode) build 59893
     1  0000                     
     2                           opt pagewidth 120
     3                           
     4                           	opt lm
     5                           
     6                           	processor	16F873A
     7                           clrc	macro
     8                           	bcf	3,0
     9                           	endm
    10  0000                     clrz	macro
    11                           	bcf	3,2
    12                           	endm
    13  0000                     setc	macro
    14                           	bsf	3,0
    15                           	endm
    16  0000                     setz	macro
    17                           	bsf	3,2
    18                           	endm
    19  0000                     skipc	macro
    20                           	btfss	3,0
    21                           	endm
    22  0000                     skipz	macro
    23                           	btfss	3,2
    24                           	endm
    25  0000                     skipnc	macro
    26                           	btfsc	3,0
    27                           	endm
    28  0000                     skipnz	macro
    29                           	btfsc	3,2
    30                           	endm
    31  0000                     indf	equ	0
    32  0000                     indf0	equ	0
    33  0000                     pc	equ	2
    34  0002                     pcl	equ	2
    35  0002                     status	equ	3
    36  0003                     fsr	equ	4
    37  0004                     fsr0	equ	4
    38  0004                     c	equ	1
    39  0001                     z	equ	0
    40  0000                     pclath	equ	10
    41  000A                     # 49 "/Applications/microchip/xc8/v1.33/include/pic16f873a.h"
    42                           INDF equ 00h ;# 
    43  0000                     # 55 "/Applications/microchip/xc8/v1.33/include/pic16f873a.h"
    44                           TMR0 equ 01h ;# 
    45  0001                     # 61 "/Applications/microchip/xc8/v1.33/include/pic16f873a.h"
    46                           PCL equ 02h ;# 
    47  0002                     # 67 "/Applications/microchip/xc8/v1.33/include/pic16f873a.h"
    48                           STATUS equ 03h ;# 
    49  0003                     # 154 "/Applications/microchip/xc8/v1.33/include/pic16f873a.h"
    50                           FSR equ 04h ;# 
    51  0004                     # 160 "/Applications/microchip/xc8/v1.33/include/pic16f873a.h"
    52                           PORTA equ 05h ;# 
    53  0005                     # 209 "/Applications/microchip/xc8/v1.33/include/pic16f873a.h"
    54                           PORTB equ 06h ;# 
    55  0006                     # 270 "/Applications/microchip/xc8/v1.33/include/pic16f873a.h"
    56                           PORTC equ 07h ;# 
    57  0007                     # 331 "/Applications/microchip/xc8/v1.33/include/pic16f873a.h"
    58                           PCLATH equ 0Ah ;# 
    59  000A                     # 350 "/Applications/microchip/xc8/v1.33/include/pic16f873a.h"
    60                           INTCON equ 0Bh ;# 
    61  000B                     # 427 "/Applications/microchip/xc8/v1.33/include/pic16f873a.h"
    62                           PIR1 equ 0Ch ;# 
    63  000C                     # 482 "/Applications/microchip/xc8/v1.33/include/pic16f873a.h"
    64                           PIR2 equ 0Dh ;# 
    65  000D                     # 521 "/Applications/microchip/xc8/v1.33/include/pic16f873a.h"
    66                           TMR1 equ 0Eh ;# 
    67  000E                     # 527 "/Applications/microchip/xc8/v1.33/include/pic16f873a.h"
    68                           TMR1L equ 0Eh ;# 
    69  000E                     # 533 "/Applications/microchip/xc8/v1.33/include/pic16f873a.h"
    70                           TMR1H equ 0Fh ;# 
    71  000F                     # 539 "/Applications/microchip/xc8/v1.33/include/pic16f873a.h"
    72                           T1CON equ 010h ;# 
    73  0010                     # 613 "/Applications/microchip/xc8/v1.33/include/pic16f873a.h"
    74                           TMR2 equ 011h ;# 
    75  0011                     # 619 "/Applications/microchip/xc8/v1.33/include/pic16f873a.h"
    76                           T2CON equ 012h ;# 
    77  0012                     # 689 "/Applications/microchip/xc8/v1.33/include/pic16f873a.h"
    78                           SSPBUF equ 013h ;# 
    79  0013                     # 695 "/Applications/microchip/xc8/v1.33/include/pic16f873a.h"
    80                           SSPCON equ 014h ;# 
    81  0014                     # 764 "/Applications/microchip/xc8/v1.33/include/pic16f873a.h"
    82                           CCPR1 equ 015h ;# 
    83  0015                     # 770 "/Applications/microchip/xc8/v1.33/include/pic16f873a.h"
    84                           CCPR1L equ 015h ;# 
    85  0015                     # 776 "/Applications/microchip/xc8/v1.33/include/pic16f873a.h"
    86                           CCPR1H equ 016h ;# 
    87  0016                     # 782 "/Applications/microchip/xc8/v1.33/include/pic16f873a.h"
    88                           CCP1CON equ 017h ;# 
    89  0017                     # 839 "/Applications/microchip/xc8/v1.33/include/pic16f873a.h"
    90                           RCSTA equ 018h ;# 
    91  0018                     # 933 "/Applications/microchip/xc8/v1.33/include/pic16f873a.h"
    92                           TXREG equ 019h ;# 
    93  0019                     # 939 "/Applications/microchip/xc8/v1.33/include/pic16f873a.h"
    94                           RCREG equ 01Ah ;# 
    95  001A                     # 945 "/Applications/microchip/xc8/v1.33/include/pic16f873a.h"
    96                           CCPR2 equ 01Bh ;# 
    97  001B                     # 951 "/Applications/microchip/xc8/v1.33/include/pic16f873a.h"
    98                           CCPR2L equ 01Bh ;# 
    99  001B                     # 957 "/Applications/microchip/xc8/v1.33/include/pic16f873a.h"
   100                           CCPR2H equ 01Ch ;# 
   101  001C                     # 963 "/Applications/microchip/xc8/v1.33/include/pic16f873a.h"
   102                           CCP2CON equ 01Dh ;# 
   103  001D                     # 1020 "/Applications/microchip/xc8/v1.33/include/pic16f873a.h"
   104                           ADRESH equ 01Eh ;# 
   105  001E                     # 1026 "/Applications/microchip/xc8/v1.33/include/pic16f873a.h"
   106                           ADCON0 equ 01Fh ;# 
   107  001F                     # 1121 "/Applications/microchip/xc8/v1.33/include/pic16f873a.h"
   108                           OPTION_REG equ 081h ;# 
   109  0081                     # 1190 "/Applications/microchip/xc8/v1.33/include/pic16f873a.h"
   110                           TRISA equ 085h ;# 
   111  0085                     # 1239 "/Applications/microchip/xc8/v1.33/include/pic16f873a.h"
   112                           TRISB equ 086h ;# 
   113  0086                     # 1300 "/Applications/microchip/xc8/v1.33/include/pic16f873a.h"
   114                           TRISC equ 087h ;# 
   115  0087                     # 1361 "/Applications/microchip/xc8/v1.33/include/pic16f873a.h"
   116                           PIE1 equ 08Ch ;# 
   117  008C                     # 1416 "/Applications/microchip/xc8/v1.33/include/pic16f873a.h"
   118                           PIE2 equ 08Dh ;# 
   119  008D                     # 1455 "/Applications/microchip/xc8/v1.33/include/pic16f873a.h"
   120                           PCON equ 08Eh ;# 
   121  008E                     # 1488 "/Applications/microchip/xc8/v1.33/include/pic16f873a.h"
   122                           SSPCON2 equ 091h ;# 
   123  0091                     # 1549 "/Applications/microchip/xc8/v1.33/include/pic16f873a.h"
   124                           PR2 equ 092h ;# 
   125  0092                     # 1555 "/Applications/microchip/xc8/v1.33/include/pic16f873a.h"
   126                           SSPADD equ 093h ;# 
   127  0093                     # 1561 "/Applications/microchip/xc8/v1.33/include/pic16f873a.h"
   128                           SSPSTAT equ 094h ;# 
   129  0094                     # 1729 "/Applications/microchip/xc8/v1.33/include/pic16f873a.h"
   130                           TXSTA equ 098h ;# 
   131  0098                     # 1809 "/Applications/microchip/xc8/v1.33/include/pic16f873a.h"
   132                           SPBRG equ 099h ;# 
   133  0099                     # 1815 "/Applications/microchip/xc8/v1.33/include/pic16f873a.h"
   134                           CMCON equ 09Ch ;# 
   135  009C                     # 1884 "/Applications/microchip/xc8/v1.33/include/pic16f873a.h"
   136                           CVRCON equ 09Dh ;# 
   137  009D                     # 1948 "/Applications/microchip/xc8/v1.33/include/pic16f873a.h"
   138                           ADRESL equ 09Eh ;# 
   139  009E                     # 1954 "/Applications/microchip/xc8/v1.33/include/pic16f873a.h"
   140                           ADCON1 equ 09Fh ;# 
   141  009F                     # 2012 "/Applications/microchip/xc8/v1.33/include/pic16f873a.h"
   142                           EEDATA equ 010Ch ;# 
   143  010C                     # 2018 "/Applications/microchip/xc8/v1.33/include/pic16f873a.h"
   144                           EEADR equ 010Dh ;# 
   145  010D                     # 2024 "/Applications/microchip/xc8/v1.33/include/pic16f873a.h"
   146                           EEDATH equ 010Eh ;# 
   147  010E                     # 2030 "/Applications/microchip/xc8/v1.33/include/pic16f873a.h"
   148                           EEADRH equ 010Fh ;# 
   149  010F                     # 2036 "/Applications/microchip/xc8/v1.33/include/pic16f873a.h"
   150                           EECON1 equ 018Ch ;# 
   151  018C                     # 2080 "/Applications/microchip/xc8/v1.33/include/pic16f873a.h"
   152                           EECON2 equ 018Dh ;# 
   153  018D                     	FNCALL	_main,_Apagar
   154                           	FNROOT	_main
   155                           psect	strings,class=STRING,delta=2,noexec
   156                           global __pstrings
   157                           __pstrings:
   158  0015                     stringtab:
   159  0015                     	global    __stringtab
   160                           __stringtab:
   161  0015                     ;	String table - string pointers are 1 byte each
   162                           stringcode:stringdir:
   163  0015                     movlw high(stringdir)
      + 0015                     stringdir:	
   164  0015  3000               movwf pclath
   165  0016  008A               movf fsr,w
   166  0017  0804               incf fsr
   167  0018  0A84               	addwf pc
   168  0019  0782               	global __stringbase
   169                           __stringbase:
   170  001A                     	retlw	0
   171  001A  3400               psect	strings
   172                           	global    __end_of__stringtab
   173                           __end_of__stringtab:
   174  001B                     	file	"Main.c"
   175                           	line	82
   176                           main@NO:
   177  001B                     	retlw	0
   178  001B  3400               	retlw	0
   179  001C  3400               
   180                           	global __end_ofmain@NO
   181                           __end_ofmain@NO:
   182  001D                     	global	main@SI
   183                           psect	strings
   184                           	file	"Main.c"
   185                           	line	81
   186                           main@SI:
   187  001D                     	retlw	01h
   188  001D  3401               	retlw	0
   189  001E  3400               
   190                           	global __end_ofmain@SI
   191                           __end_ofmain@SI:
   192  001F                     	global	main@SI
   193                           	global	_PORTA
   194                           _PORTA	set	0x5
   195  0005                     	global	_PORTB
   196                           _PORTB	set	0x6
   197  0006                     	global	_PORTBbits
   198                           _PORTBbits	set	0x6
   199  0006                     	global	_PORTC
   200                           _PORTC	set	0x7
   201  0007                     	global	_GIE
   202                           _GIE	set	0x5F
   203  005F                     	global	_PEIE
   204                           _PEIE	set	0x5E
   205  005E                     	global	_TRISAbits
   206                           _TRISAbits	set	0x85
   207  0085                     	global	_TRISBbits
   208                           _TRISBbits	set	0x86
   209  0086                     	global	_TRISCbits
   210                           _TRISCbits	set	0x87
   211  0087                     ; #config settings
   212                           global __CFG_WDTE$OFF
   213                           __CFG_WDTE$OFF equ 0x0
   214  0000                     global __CFG_PWRTE$OFF
   215                           __CFG_PWRTE$OFF equ 0x0
   216  0000                     global __CFG_CP$OFF
   217                           __CFG_CP$OFF equ 0x0
   218  0000                     global __CFG_BOREN$ON
   219                           __CFG_BOREN$ON equ 0x0
   220  0000                     global __CFG_LVP$ON
   221                           __CFG_LVP$ON equ 0x0
   222  0000                     global __CFG_CPD$OFF
   223                           __CFG_CPD$OFF equ 0x0
   224  0000                     global __CFG_WRT$OFF
   225                           __CFG_WRT$OFF equ 0x0
   226  0000                     global __CFG_FOSC$XT
   227                           __CFG_FOSC$XT equ 0x0
   228  0000                     	file	"/tmp/cgt0mfwFV"
   229                           	line	#
   230                           psect cinit,class=CODE,delta=2
   231                           global start_initialization
   232                           start_initialization:
   233  07FD                     
   234                           global __initialization
   235                           __initialization:
   236  07FD                     psect cinit,class=CODE,delta=2,merge=1
   237                           global end_of_initialization,__end_of__initialization
   238                           
   239                           ;End of C runtime variable initialization code
   240                           
   241                           end_of_initialization:
   242  07FD                     __end_of__initialization:clrf status
   243  07FD                     ljmp _main	;jump to C main() function
      + 07FD  0183               	clrf	3
   244  07FE  118A  2E96         psect	cstackCOMMON,class=COMMON,space=1,noexec
   245                           global __pcstackCOMMON
   246                           __pcstackCOMMON:
   247  0000                     ??_Apagar:	; 0 bytes @ 0x0
   248  0000                     psect	cstackBANK0,class=BANK0,space=1,noexec
   249                           global __pcstackBANK0
   250                           __pcstackBANK0:
   251  0020                     ?_Apagar:	; 0 bytes @ 0x0
   252  0020                     ?_main:	; 0 bytes @ 0x0
   253  0020                     ??_main:	; 0 bytes @ 0x0
   254  0020                     	ds	5
   255  0020                     	global	main@inicio
   256                           main@inicio:	; 2 bytes @ 0x5
   257  0025                     	ds	2
   258  0025                     	global	main@contador
   259                           main@contador:	; 2 bytes @ 0x7
   260  0027                     	ds	2
   261  0027                     ;!
   262                           ;!Data Sizes:
   263                           ;!    Strings     0
   264                           ;!    Constant    4
   265                           ;!    Data        0
   266                           ;!    BSS         0
   267                           ;!    Persistent  0
   268                           ;!    Stack       0
   269                           ;!
   270                           ;!Auto Spaces:
   271                           ;!    Space          Size  Autos    Used
   272                           ;!    COMMON            0      0       0
   273                           ;!    BANK0            92      9       9
   274                           ;!    BANK1            84      0       0
   275                           
   276                           ;!
   277                           ;!Pointer List with Targets:
   278                           ;!
   279                           ;!    None.
   280                           
   281                           
   282                           ;!
   283                           ;!Critical Paths under _main in COMMON
   284                           ;!
   285                           ;!    None.
   286                           ;!
   287                           ;!Critical Paths under _main in BANK0
   288                           ;!
   289                           ;!    None.
   290                           ;!
   291                           ;!Critical Paths under _main in BANK1
   292                           ;!
   293                           ;!    None.
   294                           
   295 ;;
   296 ;;Main: autosize = 0, tempsize = 5, incstack = 0, save=0
   297 ;;
   298                           
   299                           ;!
   300                           ;!Call Graph Tables:
   301                           ;!
   302                           ;! ---------------------------------------------------------------------------------
   303                           ;! (Depth) Function   	        Calls       Base Space   Used Autos Params    Refs
   304                           ;! ---------------------------------------------------------------------------------
   305                           ;! (0) _main                                                 9     9      0      49
   306                           ;!                                              0 BANK0      9     9      0
   307                           ;!                             _Apagar
   308                           ;! ---------------------------------------------------------------------------------
   309                           ;! (1) _Apagar                                               0     0      0       0
   310                           ;! ---------------------------------------------------------------------------------
   311                           ;! Estimated maximum stack depth 1
   312                           ;! ---------------------------------------------------------------------------------
   313                           ;!
   314                           ;! Call Graph Graphs:
   315                           ;!
   316                           ;! _main (ROOT)
   317                           ;!   _Apagar
   318                           ;!
   319                           
   320                           ;! Address spaces:
   321                           
   322                           ;!Name               Size   Autos  Total    Cost      Usage
   323                           ;!BITCOMMON            0      0       0       0        0.0%
   324                           ;!EEDATA              80      0       0       0        0.0%
   325                           ;!NULL                 0      0       0       0        0.0%
   326                           ;!CODE                 0      0       0       0        0.0%
   327                           ;!BITSFR0              0      0       0       1        0.0%
   328                           ;!SFR0                 0      0       0       1        0.0%
   329                           ;!COMMON               0      0       0       1        0.0%
   330                           ;!BITSFR1              0      0       0       2        0.0%
   331                           ;!SFR1                 0      0       0       2        0.0%
   332                           ;!STACK                0      0       0       2        0.0%
   333                           ;!BITBANK0            5C      0       0       3        0.0%
   334                           ;!BANK0               5C      9       9       4        9.8%
   335                           ;!BITSFR3              0      0       0       4        0.0%
   336                           ;!SFR3                 0      0       0       4        0.0%
   337                           ;!BITBANK1            54      0       0       5        0.0%
   338                           ;!BITSFR2              0      0       0       5        0.0%
   339                           ;!SFR2                 0      0       0       5        0.0%
   340                           ;!BANK1               54      0       0       6        0.0%
   341                           ;!ABS                  0      0       0       7        0.0%
   342                           ;!DATA                 0      0       0       8        0.0%
   343                           
   344                           	global	_main
   345                           
   346 ;; *************** function _main *****************
   347 ;; Defined at:
   348 ;;		line 71 in file "Main.c"
   349 ;; Parameters:    Size  Location     Type
   350 ;;		None
   351 ;; Auto vars:     Size  Location     Type
   352 ;;  contador        2    7[BANK0 ] int 
   353 ;;  inicio          2    5[BANK0 ] int 
   354 ;; Return value:  Size  Location     Type
   355 ;;		None               void
   356 ;; Registers used:
   357 ;;		wreg, fsr0l, fsr0h, status,2, status,0, btemp+1, pclath, cstack
   358 ;; Tracked objects:
   359 ;;		On entry : 17F/0
   360 ;;		On exit  : 0/0
   361 ;;		Unchanged: 0/0
   362 ;; Data sizes:     COMMON   BANK0   BANK1
   363 ;;      Params:         0       0       0
   364 ;;      Locals:         0       4       0
   365 ;;      Temps:          0       5       0
   366 ;;      Totals:         0       9       0
   367 ;;Total ram usage:        9 bytes
   368 ;; Hardware stack levels required when called:    1
   369 ;; This function calls:
   370 ;;		_Apagar
   371 ;; This function is called by:
   372 ;;		Startup code after reset
   373 ;; This function uses a non-reentrant model
   374 ;;
   375                           psect	maintext,global,class=CODE,delta=2,split=1
   376                           	file	"Main.c"
   377                           	line	71
   378                           global __pmaintext
   379                           __pmaintext:	;psect for function _main
   380  0696                     psect	maintext
   381                           	file	"Main.c"
   382                           	line	71
   383                           	global	__size_of_main
   384                           	__size_of_main	equ	__end_of_main-_main
   385  0167                     	
   386                           _main:	
   387  0696                     ;incstack = 0
   388                           	opt	stack 5
   389                           ; Regs used in _main: [wreg-fsr0h+status,2+status,0+btemp+1+pclath+cstack]
   390                           	line	76
   391                           	
   392                           l743:	
   393  0696                     ;Main.c: 76: PEIE = 0;
   394                           	bcf	(94/8),(94)&7	;volatile
   395  0696  130B               	line	77
   396                           ;Main.c: 77: GIE = 0;
   397                           	bcf	(95/8),(95)&7	;volatile
   398  0697  138B               	line	86
   399                           	
   400                           l745:	
   401  0698                     ;Main.c: 81: int const SI = 1;
   402                           ;Main.c: 82: int const NO = 0;
   403                           ;Main.c: 86: int contador = 4;
   404                           	movlw	low(04h)
   405  0698  3004               	bcf	status, 5	;RP0=0, select bank0
   406  0699  1283               	bcf	status, 6	;RP1=0, select bank0
   407  069A  1303               	movwf	(main@contador)
   408  069B  00A7               	movlw	high(04h)
   409  069C  3000               	movwf	((main@contador))+1
   410  069D  00A8               	line	87
   411                           	
   412                           l747:	
   413  069E                     ;Main.c: 87: int inicio = 0;
   414                           	clrf	(main@inicio)
   415  069E  01A5               	clrf	(main@inicio+1)
   416  069F  01A6               	line	91
   417                           	
   418                           l749:	
   419  06A0                     ;Main.c: 91: TRISBbits.TRISB0 = 1;
   420                           	bsf	status, 5	;RP0=1, select bank1
   421  06A0  1683               	bcf	status, 6	;RP1=0, select bank1
   422  06A1  1303               	bsf	(134)^080h,0	;volatile
   423  06A2  1406               	line	92
   424                           	
   425                           l751:	
   426  06A3                     ;Main.c: 92: TRISBbits.TRISB5 = 1;
   427                           	bsf	(134)^080h,5	;volatile
   428  06A3  1686               	line	95
   429                           	
   430                           l753:	
   431  06A4                     ;Main.c: 95: TRISAbits.TRISA2 = 0;
   432                           	bcf	(133)^080h,2	;volatile
   433  06A4  1105               	line	96
   434                           	
   435                           l755:	
   436  06A5                     ;Main.c: 96: TRISAbits.TRISA0 = 0;
   437                           	bcf	(133)^080h,0	;volatile
   438  06A5  1005               	line	97
   439                           	
   440                           l757:	
   441  06A6                     ;Main.c: 97: TRISAbits.TRISA1 = 0;
   442                           	bcf	(133)^080h,1	;volatile
   443  06A6  1085               	line	99
   444                           	
   445                           l759:	
   446  06A7                     ;Main.c: 99: TRISAbits.TRISA5 = 0;
   447                           	bcf	(133)^080h,5	;volatile
   448  06A7  1285               	line	100
   449                           	
   450                           l761:	
   451  06A8                     ;Main.c: 100: TRISAbits.TRISA3 = 0;
   452                           	bcf	(133)^080h,3	;volatile
   453  06A8  1185               	line	101
   454                           	
   455                           l763:	
   456  06A9                     ;Main.c: 101: TRISAbits.TRISA4 = 0;
   457                           	bcf	(133)^080h,4	;volatile
   458  06A9  1205               	line	103
   459                           	
   460                           l765:	
   461  06AA                     ;Main.c: 103: TRISCbits.TRISC2 = 0;
   462                           	bcf	(135)^080h,2	;volatile
   463  06AA  1107               	line	104
   464                           	
   465                           l767:	
   466  06AB                     ;Main.c: 104: TRISCbits.TRISC0 = 0;
   467                           	bcf	(135)^080h,0	;volatile
   468  06AB  1007               	line	105
   469                           	
   470                           l769:	
   471  06AC                     ;Main.c: 105: TRISCbits.TRISC1 = 0;
   472                           	bcf	(135)^080h,1	;volatile
   473  06AC  1087               	line	107
   474                           	
   475                           l771:	
   476  06AD                     ;Main.c: 107: TRISBbits.TRISB1 = 0;
   477                           	bcf	(134)^080h,1	;volatile
   478  06AD  1086               	line	108
   479                           	
   480                           l773:	
   481  06AE                     ;Main.c: 108: TRISBbits.TRISB2 = 0;
   482                           	bcf	(134)^080h,2	;volatile
   483  06AE  1106               	line	109
   484                           	
   485                           l775:	
   486  06AF                     ;Main.c: 109: TRISBbits.TRISB4 = 0;
   487                           	bcf	(134)^080h,4	;volatile
   488  06AF  1206               	goto	l777
   489  06B0  2EB2               	line	119
   490                           ;Main.c: 119: while (1) {
   491                           	
   492                           l29:	
   493  06B1                     	goto	l777
   494  06B1  2EB2               	line	121
   495                           ;Main.c: 121: do {
   496                           	
   497                           l30:	
   498  06B2                     	line	122
   499                           	
   500                           l777:	
   501  06B2                     ;Main.c: 122: if (PORTBbits.RB0 == SI) {
   502                           	movlw	(main@SI-__stringbase)
   503  06B2  3003               	movwf	fsr0
   504  06B3  0084               	fcall	stringdir
   505  06B4  118A  2015  118A   	bcf	status, 5	;RP0=0, select bank0
   506  06B7  1283               	movwf	(??_main+0)+0
   507  06B8  00A0               	fcall	stringdir
   508  06B9  118A  2015  118A   	movwf	(??_main+0)+0+1
   509  06BC  00A1               	movf	(6),w	;volatile
   510  06BD  0806               	andlw	(1<<1)-1
   511  06BE  3901               	movwf	(??_main+2)+0
   512  06BF  00A2               	clrf	(??_main+2)+0+1
   513  06C0  01A3               	movf	1+(??_main+0)+0,w
   514  06C1  0821               	xorwf	1+(??_main+2)+0,w
   515  06C2  0623               	skipz
   516  06C3  1D03               	goto	u55
   517  06C4  2EC7               	movf	0+(??_main+0)+0,w
   518  06C5  0820               	xorwf	0+(??_main+2)+0,w
   519  06C6  0622               u55:
   520  06C7                     
   521                           	skipz
   522  06C7  1D03               	goto	u51
   523  06C8  2ECA               	goto	u50
   524  06C9  2ECB               u51:
   525  06CA                     	goto	l781
   526  06CA  2ED6               u50:
   527  06CB                     	line	124
   528                           	
   529                           l779:	
   530  06CB                     ;Main.c: 124: inicio = SI;
   531                           	movlw	(main@SI-__stringbase)
   532  06CB  3003               	movwf	fsr0
   533  06CC  0084               	fcall	stringdir
   534  06CD  118A  2015  118A   	movwf	(main@inicio)
   535  06D0  00A5               	fcall	stringdir
   536  06D1  118A  2015  118A   	movwf	(main@inicio+1)
   537  06D4  00A6               	goto	l781
   538  06D5  2ED6               	line	126
   539                           	
   540                           l31:	
   541  06D6                     	line	127
   542                           	
   543                           l781:	
   544  06D6                     ;Main.c: 126: }
   545                           ;Main.c: 127: } while (inicio == 0);
   546                           	movf	(main@inicio+1),w
   547  06D6  0826               	iorwf	(main@inicio),w
   548  06D7  0425               	skipnz
   549  06D8  1903               	goto	u61
   550  06D9  2EDB               	goto	u60
   551  06DA  2EDC               u61:
   552  06DB                     	goto	l777
   553  06DB  2EB2               u60:
   554  06DC                     	goto	l783
   555  06DC  2EDD               	
   556                           l32:	
   557  06DD                     	line	129
   558                           	
   559                           l783:	
   560  06DD                     ;Main.c: 129: if (PORTBbits.RB0 == SI) {
   561                           	movlw	(main@SI-__stringbase)
   562  06DD  3003               	movwf	fsr0
   563  06DE  0084               	fcall	stringdir
   564  06DF  118A  2015  118A   	movwf	(??_main+0)+0
   565  06E2  00A0               	fcall	stringdir
   566  06E3  118A  2015  118A   	movwf	(??_main+0)+0+1
   567  06E6  00A1               	movf	(6),w	;volatile
   568  06E7  0806               	andlw	(1<<1)-1
   569  06E8  3901               	movwf	(??_main+2)+0
   570  06E9  00A2               	clrf	(??_main+2)+0+1
   571  06EA  01A3               	movf	1+(??_main+0)+0,w
   572  06EB  0821               	xorwf	1+(??_main+2)+0,w
   573  06EC  0623               	skipz
   574  06ED  1D03               	goto	u75
   575  06EE  2EF1               	movf	0+(??_main+0)+0,w
   576  06EF  0820               	xorwf	0+(??_main+2)+0,w
   577  06F0  0622               u75:
   578  06F1                     
   579                           	skipz
   580  06F1  1D03               	goto	u71
   581  06F2  2EF4               	goto	u70
   582  06F3  2EF5               u71:
   583  06F4                     	goto	l787
   584  06F4  2EF8               u70:
   585  06F5                     	line	131
   586                           	
   587                           l785:	
   588  06F5                     ;Main.c: 131: contador = 0;
   589                           	clrf	(main@contador)
   590  06F5  01A7               	clrf	(main@contador+1)
   591  06F6  01A8               	goto	l787
   592  06F7  2EF8               	line	134
   593                           	
   594                           l33:	
   595  06F8                     	line	136
   596                           	
   597                           l787:	
   598  06F8                     ;Main.c: 134: }
   599                           ;Main.c: 136: if (PORTBbits.RB5 == SI) {
   600                           	movlw	(main@SI-__stringbase)
   601  06F8  3003               	movwf	fsr0
   602  06F9  0084               	fcall	stringdir
   603  06FA  118A  2015  118A   	movwf	(??_main+0)+0
   604  06FD  00A0               	fcall	stringdir
   605  06FE  118A  2015  118A   	movwf	(??_main+0)+0+1
   606  0701  00A1               	swapf	(6),w	;volatile
   607  0702  0E06               	movwf	(??_main+2)+0
   608  0703  00A2               	rrf	(??_main+2)+0,w
   609  0704  0C22               	andlw	(1<<1)-1
   610  0705  3901               	movwf	(??_main+3)+0
   611  0706  00A3               	clrf	(??_main+3)+0+1
   612  0707  01A4               	movf	1+(??_main+0)+0,w
   613  0708  0821               	xorwf	1+(??_main+3)+0,w
   614  0709  0624               	skipz
   615  070A  1D03               	goto	u85
   616  070B  2F0E               	movf	0+(??_main+0)+0,w
   617  070C  0820               	xorwf	0+(??_main+3)+0,w
   618  070D  0623               u85:
   619  070E                     
   620                           	skipz
   621  070E  1D03               	goto	u81
   622  070F  2F11               	goto	u80
   623  0710  2F12               u81:
   624  0711                     	goto	l899
   625  0711  2FE8               u80:
   626  0712                     	line	138
   627                           	
   628                           l789:	
   629  0712                     ;Main.c: 138: contador++;
   630                           	movlw	low(01h)
   631  0712  3001               	addwf	(main@contador),f
   632  0713  07A7               	skipnc
   633  0714  1803               	incf	(main@contador+1),f
   634  0715  0AA8               	movlw	high(01h)
   635  0716  3000               	addwf	(main@contador+1),f
   636  0717  07A8               	goto	l899
   637  0718  2FE8               	line	140
   638                           	
   639                           l34:	
   640  0719                     	line	141
   641                           ;Main.c: 140: }
   642                           ;Main.c: 141: switch (contador) {
   643                           	goto	l899
   644  0719  2FE8               	line	142
   645                           ;Main.c: 142: case 0:
   646                           	
   647                           l36:	
   648  071A                     	line	143
   649                           	
   650                           l791:	
   651  071A                     ;Main.c: 143: Apagar();
   652                           	fcall	_Apagar
   653  071A  118A  2690  118A   	line	144
   654                           	
   655                           l793:	
   656  071D                     ;Main.c: 144: PORTA|=0b000111;
   657                           	movlw	(07h)
   658  071D  3007               	bcf	status, 5	;RP0=0, select bank0
   659  071E  1283               	bcf	status, 6	;RP1=0, select bank0
   660  071F  1303               	movwf	(??_main+0)+0
   661  0720  00A0               	movf	(??_main+0)+0,w
   662  0721  0820               	iorwf	(5),f	;volatile
   663  0722  0485               	line	145
   664                           	
   665                           l795:	
   666  0723                     ;Main.c: 145: _delay((unsigned long)((10)*(4000000/4000.0)));
   667                           	opt asmopt_off
   668                           movlw	13
   669  0723  300D               movwf	((??_main+0)+0+1),f
   670  0724  00A1               	movlw	251
   671  0725  30FB               movwf	((??_main+0)+0),f
   672  0726  00A0               u97:
   673  0727                     	decfsz	((??_main+0)+0),f
   674  0727  0BA0               	goto	u97
   675  0728  2F27               	decfsz	((??_main+0)+0+1),f
   676  0729  0BA1               	goto	u97
   677  072A  2F27               	nop2
   678  072B  2F2C               opt asmopt_on
   679                           
   680                           	line	146
   681                           	
   682                           l797:	
   683  072C                     ;Main.c: 146: PORTA|= 0b000011;
   684                           	movlw	(03h)
   685  072C  3003               	bcf	status, 5	;RP0=0, select bank0
   686  072D  1283               	bcf	status, 6	;RP1=0, select bank0
   687  072E  1303               	movwf	(??_main+0)+0
   688  072F  00A0               	movf	(??_main+0)+0,w
   689  0730  0820               	iorwf	(5),f	;volatile
   690  0731  0485               	line	147
   691                           	
   692                           l799:	
   693  0732                     ;Main.c: 147: PORTA|=0b100000;
   694                           	bsf	(5)+(5/8),(5)&7	;volatile
   695  0732  1685               	line	148
   696                           	
   697                           l801:	
   698  0733                     ;Main.c: 148: PORTC|=0b00000001;
   699                           	bsf	(7)+(0/8),(0)&7	;volatile
   700  0733  1407               	line	149
   701                           	
   702                           l803:	
   703  0734                     ;Main.c: 149: PORTB|=0b00000010;
   704                           	bsf	(6)+(1/8),(1)&7	;volatile
   705  0734  1486               	line	150
   706                           ;Main.c: 150: break;
   707                           	goto	l777
   708  0735  2EB2               	line	151
   709                           ;Main.c: 151: case 1:
   710                           	
   711                           l38:	
   712  0736                     	line	152
   713                           	
   714                           l805:	
   715  0736                     ;Main.c: 152: Apagar();
   716                           	fcall	_Apagar
   717  0736  118A  2690  118A   	line	153
   718                           	
   719                           l807:	
   720  0739                     ;Main.c: 153: PORTA|= 0b000011;
   721                           	movlw	(03h)
   722  0739  3003               	bcf	status, 5	;RP0=0, select bank0
   723  073A  1283               	bcf	status, 6	;RP1=0, select bank0
   724  073B  1303               	movwf	(??_main+0)+0
   725  073C  00A0               	movf	(??_main+0)+0,w
   726  073D  0820               	iorwf	(5),f	;volatile
   727  073E  0485               	line	154
   728                           	
   729                           l809:	
   730  073F                     ;Main.c: 154: PORTA|=0b110000;
   731                           	movlw	(030h)
   732  073F  3030               	movwf	(??_main+0)+0
   733  0740  00A0               	movf	(??_main+0)+0,w
   734  0741  0820               	iorwf	(5),f	;volatile
   735  0742  0485               	line	155
   736                           	
   737                           l811:	
   738  0743                     ;Main.c: 155: PORTC|=0b00000100;
   739                           	bsf	(7)+(2/8),(2)&7	;volatile
   740  0743  1507               	line	156
   741                           	
   742                           l813:	
   743  0744                     ;Main.c: 156: PORTB|=0b00000010;
   744                           	bsf	(6)+(1/8),(1)&7	;volatile
   745  0744  1486               	line	157
   746                           ;Main.c: 157: break;
   747                           	goto	l777
   748  0745  2EB2               	line	158
   749                           ;Main.c: 158: case 2:
   750                           	
   751                           l39:	
   752  0746                     	line	159
   753                           	
   754                           l815:	
   755  0746                     ;Main.c: 159: Apagar();
   756                           	fcall	_Apagar
   757  0746  118A  2690  118A   	line	160
   758                           	
   759                           l817:	
   760  0749                     ;Main.c: 160: PORTA|=0b000001;
   761                           	bcf	status, 5	;RP0=0, select bank0
   762  0749  1283               	bcf	status, 6	;RP1=0, select bank0
   763  074A  1303               	bsf	(5)+(0/8),(0)&7	;volatile
   764  074B  1405               	line	161
   765                           	
   766                           l819:	
   767  074C                     ;Main.c: 161: PORTA|=0b110000;
   768                           	movlw	(030h)
   769  074C  3030               	movwf	(??_main+0)+0
   770  074D  00A0               	movf	(??_main+0)+0,w
   771  074E  0820               	iorwf	(5),f	;volatile
   772  074F  0485               	line	162
   773                           	
   774                           l821:	
   775  0750                     ;Main.c: 162: PORTC|=0b00000100;
   776                           	bsf	(7)+(2/8),(2)&7	;volatile
   777  0750  1507               	line	163
   778                           	
   779                           l823:	
   780  0751                     ;Main.c: 163: PORTB|=0b00010000;
   781                           	bsf	(6)+(4/8),(4)&7	;volatile
   782  0751  1606               	line	164
   783                           ;Main.c: 164: break;
   784                           	goto	l777
   785  0752  2EB2               	line	165
   786                           ;Main.c: 165: case 3:
   787                           	
   788                           l40:	
   789  0753                     	line	166
   790                           	
   791                           l825:	
   792  0753                     ;Main.c: 166: Apagar();
   793                           	fcall	_Apagar
   794  0753  118A  2690  118A   	line	167
   795                           	
   796                           l827:	
   797  0756                     ;Main.c: 167: PORTA|=0b000001;
   798                           	bcf	status, 5	;RP0=0, select bank0
   799  0756  1283               	bcf	status, 6	;RP1=0, select bank0
   800  0757  1303               	bsf	(5)+(0/8),(0)&7	;volatile
   801  0758  1405               	line	168
   802                           	
   803                           l829:	
   804  0759                     ;Main.c: 168: PORTA|=0b111000;
   805                           	movlw	(038h)
   806  0759  3038               	movwf	(??_main+0)+0
   807  075A  00A0               	movf	(??_main+0)+0,w
   808  075B  0820               	iorwf	(5),f	;volatile
   809  075C  0485               	line	169
   810                           	
   811                           l831:	
   812  075D                     ;Main.c: 169: _delay((unsigned long)((10)*(4000000/4000.0)));
   813                           	opt asmopt_off
   814                           movlw	13
   815  075D  300D               movwf	((??_main+0)+0+1),f
   816  075E  00A1               	movlw	251
   817  075F  30FB               movwf	((??_main+0)+0),f
   818  0760  00A0               u107:
   819  0761                     	decfsz	((??_main+0)+0),f
   820  0761  0BA0               	goto	u107
   821  0762  2F61               	decfsz	((??_main+0)+0+1),f
   822  0763  0BA1               	goto	u107
   823  0764  2F61               	nop2
   824  0765  2F66               opt asmopt_on
   825                           
   826                           	line	170
   827                           	
   828                           l833:	
   829  0766                     ;Main.c: 170: PORTA|=0b011000;
   830                           	movlw	(018h)
   831  0766  3018               	bcf	status, 5	;RP0=0, select bank0
   832  0767  1283               	bcf	status, 6	;RP1=0, select bank0
   833  0768  1303               	movwf	(??_main+0)+0
   834  0769  00A0               	movf	(??_main+0)+0,w
   835  076A  0820               	iorwf	(5),f	;volatile
   836  076B  0485               	line	171
   837                           	
   838                           l835:	
   839  076C                     ;Main.c: 171: PORTC|=0b00000110;
   840                           	movlw	(06h)
   841  076C  3006               	movwf	(??_main+0)+0
   842  076D  00A0               	movf	(??_main+0)+0,w
   843  076E  0820               	iorwf	(7),f	;volatile
   844  076F  0487               	line	172
   845                           	
   846                           l837:	
   847  0770                     ;Main.c: 172: PORTB|=0b00010000;
   848                           	bsf	(6)+(4/8),(4)&7	;volatile
   849  0770  1606               	line	173
   850                           ;Main.c: 173: break;
   851                           	goto	l777
   852  0771  2EB2               	line	174
   853                           ;Main.c: 174: case 4:
   854                           	
   855                           l41:	
   856  0772                     	line	175
   857                           	
   858                           l839:	
   859  0772                     ;Main.c: 175: Apagar();
   860                           	fcall	_Apagar
   861  0772  118A  2690  118A   	line	176
   862                           	
   863                           l841:	
   864  0775                     ;Main.c: 176: PORTA|= 0b000100;
   865                           	bcf	status, 5	;RP0=0, select bank0
   866  0775  1283               	bcf	status, 6	;RP1=0, select bank0
   867  0776  1303               	bsf	(5)+(2/8),(2)&7	;volatile
   868  0777  1505               	line	177
   869                           	
   870                           l843:	
   871  0778                     ;Main.c: 177: PORTA|=0b011000;
   872                           	movlw	(018h)
   873  0778  3018               	movwf	(??_main+0)+0
   874  0779  00A0               	movf	(??_main+0)+0,w
   875  077A  0820               	iorwf	(5),f	;volatile
   876  077B  0485               	line	178
   877                           	
   878                           l845:	
   879  077C                     ;Main.c: 178: PORTC|=0b00000110;
   880                           	movlw	(06h)
   881  077C  3006               	movwf	(??_main+0)+0
   882  077D  00A0               	movf	(??_main+0)+0,w
   883  077E  0820               	iorwf	(7),f	;volatile
   884  077F  0487               	line	179
   885                           	
   886                           l847:	
   887  0780                     ;Main.c: 179: PORTB|=0b00010100;
   888                           	movlw	(014h)
   889  0780  3014               	movwf	(??_main+0)+0
   890  0781  00A0               	movf	(??_main+0)+0,w
   891  0782  0820               	iorwf	(6),f	;volatile
   892  0783  0486               	line	180
   893                           ;Main.c: 180: break;
   894                           	goto	l777
   895  0784  2EB2               	line	181
   896                           ;Main.c: 181: case 5:
   897                           	
   898                           l42:	
   899  0785                     	line	182
   900                           	
   901                           l849:	
   902  0785                     ;Main.c: 182: Apagar();
   903                           	fcall	_Apagar
   904  0785  118A  2690  118A   	line	183
   905                           	
   906                           l851:	
   907  0788                     ;Main.c: 183: PORTA|= 0b000100;
   908                           	bcf	status, 5	;RP0=0, select bank0
   909  0788  1283               	bcf	status, 6	;RP1=0, select bank0
   910  0789  1303               	bsf	(5)+(2/8),(2)&7	;volatile
   911  078A  1505               	line	184
   912                           	
   913                           l853:	
   914  078B                     ;Main.c: 184: PORTA|=0b001000;
   915                           	bsf	(5)+(3/8),(3)&7	;volatile
   916  078B  1585               	line	185
   917                           	
   918                           l855:	
   919  078C                     ;Main.c: 185: PORTC|=0b00000111;
   920                           	movlw	(07h)
   921  078C  3007               	movwf	(??_main+0)+0
   922  078D  00A0               	movf	(??_main+0)+0,w
   923  078E  0820               	iorwf	(7),f	;volatile
   924  078F  0487               	line	186
   925                           	
   926                           l857:	
   927  0790                     ;Main.c: 186: _delay((unsigned long)((10)*(4000000/4000.0)));
   928                           	opt asmopt_off
   929                           movlw	13
   930  0790  300D               movwf	((??_main+0)+0+1),f
   931  0791  00A1               	movlw	251
   932  0792  30FB               movwf	((??_main+0)+0),f
   933  0793  00A0               u117:
   934  0794                     	decfsz	((??_main+0)+0),f
   935  0794  0BA0               	goto	u117
   936  0795  2F94               	decfsz	((??_main+0)+0+1),f
   937  0796  0BA1               	goto	u117
   938  0797  2F94               	nop2
   939  0798  2F99               opt asmopt_on
   940                           
   941                           	line	187
   942                           	
   943                           l859:	
   944  0799                     ;Main.c: 187: PORTC|=0b00000011;
   945                           	movlw	(03h)
   946  0799  3003               	bcf	status, 5	;RP0=0, select bank0
   947  079A  1283               	bcf	status, 6	;RP1=0, select bank0
   948  079B  1303               	movwf	(??_main+0)+0
   949  079C  00A0               	movf	(??_main+0)+0,w
   950  079D  0820               	iorwf	(7),f	;volatile
   951  079E  0487               	line	188
   952                           	
   953                           l861:	
   954  079F                     ;Main.c: 188: PORTB|=0b00010100;
   955                           	movlw	(014h)
   956  079F  3014               	movwf	(??_main+0)+0
   957  07A0  00A0               	movf	(??_main+0)+0,w
   958  07A1  0820               	iorwf	(6),f	;volatile
   959  07A2  0486               	line	189
   960                           ;Main.c: 189: break;
   961                           	goto	l777
   962  07A3  2EB2               	line	190
   963                           ;Main.c: 190: case 6:
   964                           	
   965                           l43:	
   966  07A4                     	line	191
   967                           	
   968                           l863:	
   969  07A4                     ;Main.c: 191: Apagar();
   970                           	fcall	_Apagar
   971  07A4  118A  2690  118A   	line	192
   972                           	
   973                           l865:	
   974  07A7                     ;Main.c: 192: PORTA|= 0b000110;
   975                           	movlw	(06h)
   976  07A7  3006               	bcf	status, 5	;RP0=0, select bank0
   977  07A8  1283               	bcf	status, 6	;RP1=0, select bank0
   978  07A9  1303               	movwf	(??_main+0)+0
   979  07AA  00A0               	movf	(??_main+0)+0,w
   980  07AB  0820               	iorwf	(5),f	;volatile
   981  07AC  0485               	line	193
   982                           	
   983                           l867:	
   984  07AD                     ;Main.c: 193: PORTA|=0b001000;
   985                           	bsf	(5)+(3/8),(3)&7	;volatile
   986  07AD  1585               	line	194
   987                           	
   988                           l869:	
   989  07AE                     ;Main.c: 194: PORTC|=0b00000011;
   990                           	movlw	(03h)
   991  07AE  3003               	movwf	(??_main+0)+0
   992  07AF  00A0               	movf	(??_main+0)+0,w
   993  07B0  0820               	iorwf	(7),f	;volatile
   994  07B1  0487               	line	195
   995                           	
   996                           l871:	
   997  07B2                     ;Main.c: 195: PORTB|=0b00010110;
   998                           	movlw	(016h)
   999  07B2  3016               	movwf	(??_main+0)+0
  1000  07B3  00A0               	movf	(??_main+0)+0,w
  1001  07B4  0820               	iorwf	(6),f	;volatile
  1002  07B5  0486               	line	196
  1003                           	
  1004                           l873:	
  1005  07B6                     ;Main.c: 196: _delay((unsigned long)((10)*(4000000/4000.0)));
  1006                           	opt asmopt_off
  1007                           movlw	13
  1008  07B6  300D               movwf	((??_main+0)+0+1),f
  1009  07B7  00A1               	movlw	251
  1010  07B8  30FB               movwf	((??_main+0)+0),f
  1011  07B9  00A0               u127:
  1012  07BA                     	decfsz	((??_main+0)+0),f
  1013  07BA  0BA0               	goto	u127
  1014  07BB  2FBA               	decfsz	((??_main+0)+0+1),f
  1015  07BC  0BA1               	goto	u127
  1016  07BD  2FBA               	nop2
  1017  07BE  2FBF               opt asmopt_on
  1018                           
  1019                           	line	197
  1020                           	
  1021                           l875:	
  1022  07BF                     ;Main.c: 197: PORTB|=0b00000110;
  1023                           	movlw	(06h)
  1024  07BF  3006               	bcf	status, 5	;RP0=0, select bank0
  1025  07C0  1283               	bcf	status, 6	;RP1=0, select bank0
  1026  07C1  1303               	movwf	(??_main+0)+0
  1027  07C2  00A0               	movf	(??_main+0)+0,w
  1028  07C3  0820               	iorwf	(6),f	;volatile
  1029  07C4  0486               	line	198
  1030                           ;Main.c: 198: break;
  1031                           	goto	l777
  1032  07C5  2EB2               	line	199
  1033                           ;Main.c: 199: case 7:
  1034                           	
  1035                           l44:	
  1036  07C6                     	line	200
  1037                           	
  1038                           l877:	
  1039  07C6                     ;Main.c: 200: Apagar();
  1040                           	fcall	_Apagar
  1041  07C6  118A  2690  118A   	line	201
  1042                           	
  1043                           l879:	
  1044  07C9                     ;Main.c: 201: PORTA|= 0b000110;
  1045                           	movlw	(06h)
  1046  07C9  3006               	bcf	status, 5	;RP0=0, select bank0
  1047  07CA  1283               	bcf	status, 6	;RP1=0, select bank0
  1048  07CB  1303               	movwf	(??_main+0)+0
  1049  07CC  00A0               	movf	(??_main+0)+0,w
  1050  07CD  0820               	iorwf	(5),f	;volatile
  1051  07CE  0485               	line	202
  1052                           	
  1053                           l881:	
  1054  07CF                     ;Main.c: 202: PORTA|=0b100000;
  1055                           	bsf	(5)+(5/8),(5)&7	;volatile
  1056  07CF  1685               	line	203
  1057                           	
  1058                           l883:	
  1059  07D0                     ;Main.c: 203: PORTC|=0b00000001;
  1060                           	bsf	(7)+(0/8),(0)&7	;volatile
  1061  07D0  1407               	line	204
  1062                           	
  1063                           l885:	
  1064  07D1                     ;Main.c: 204: PORTB|=0b00000110;
  1065                           	movlw	(06h)
  1066  07D1  3006               	movwf	(??_main+0)+0
  1067  07D2  00A0               	movf	(??_main+0)+0,w
  1068  07D3  0820               	iorwf	(6),f	;volatile
  1069  07D4  0486               	line	205
  1070                           ;Main.c: 205: break;
  1071                           	goto	l777
  1072  07D5  2EB2               	line	206
  1073                           ;Main.c: 206: case 8:
  1074                           	
  1075                           l45:	
  1076  07D6                     	line	207
  1077                           	
  1078                           l887:	
  1079  07D6                     ;Main.c: 207: Apagar();
  1080                           	fcall	_Apagar
  1081  07D6  118A  2690  118A   	line	208
  1082                           	
  1083                           l889:	
  1084  07D9                     ;Main.c: 208: PORTA|= 0b000110;
  1085                           	movlw	(06h)
  1086  07D9  3006               	bcf	status, 5	;RP0=0, select bank0
  1087  07DA  1283               	bcf	status, 6	;RP1=0, select bank0
  1088  07DB  1303               	movwf	(??_main+0)+0
  1089  07DC  00A0               	movf	(??_main+0)+0,w
  1090  07DD  0820               	iorwf	(5),f	;volatile
  1091  07DE  0485               	line	209
  1092                           	
  1093                           l891:	
  1094  07DF                     ;Main.c: 209: PORTA|=0b100000;
  1095                           	bsf	(5)+(5/8),(5)&7	;volatile
  1096  07DF  1685               	line	210
  1097                           	
  1098                           l893:	
  1099  07E0                     ;Main.c: 210: PORTC|=0b00000001;
  1100                           	bsf	(7)+(0/8),(0)&7	;volatile
  1101  07E0  1407               	line	211
  1102                           	
  1103                           l895:	
  1104  07E1                     ;Main.c: 211: PORTB|=0b00000110;
  1105                           	movlw	(06h)
  1106  07E1  3006               	movwf	(??_main+0)+0
  1107  07E2  00A0               	movf	(??_main+0)+0,w
  1108  07E3  0820               	iorwf	(6),f	;volatile
  1109  07E4  0486               	line	212
  1110                           ;Main.c: 212: break;
  1111                           	goto	l777
  1112  07E5  2EB2               	line	213
  1113                           ;Main.c: 213: default:
  1114                           	
  1115                           l46:	
  1116  07E6                     	line	214
  1117                           ;Main.c: 214: break;
  1118                           	goto	l777
  1119  07E6  2EB2               	line	215
  1120                           	
  1121                           l897:	
  1122  07E7                     ;Main.c: 215: }
  1123                           	goto	l777
  1124  07E7  2EB2               	line	141
  1125                           	
  1126                           l35:	
  1127  07E8                     	
  1128                           l899:	
  1129  07E8                     	; Switch on 2 bytes has been partitioned into a top level switch of size 1, and 1 sub-s
                                 witches
  1130                           ; Switch size 1, requested type "space"
  1131                           ; Number of cases is 1, Range of values is 0 to 0
  1132                           ; switch strategies available:
  1133                           ; Name         Instructions Cycles
  1134                           ; simple_byte            4     3 (average)
  1135                           ; direct_byte            9     7 (fixed)
  1136                           ; jumptable            260     6 (fixed)
  1137                           ;	Chosen strategy is simple_byte
  1138                           
  1139                           	movf (main@contador+1),w
  1140  07E8  0828               	opt asmopt_off
  1141                           	xorlw	0^0	; case 0
  1142  07E9  3A00               	skipnz
  1143  07EA  1903               	goto	l973
  1144  07EB  2FED               	goto	l777
  1145  07EC  2EB2               	opt asmopt_on
  1146                           	
  1147                           l973:	
  1148  07ED                     ; Switch size 1, requested type "space"
  1149                           ; Number of cases is 9, Range of values is 0 to 8
  1150                           ; switch strategies available:
  1151                           ; Name         Instructions Cycles
  1152                           ; direct_byte           25     7 (fixed)
  1153                           ; simple_byte           28    15 (average)
  1154                           ; jumptable            260     6 (fixed)
  1155                           ;	Chosen strategy is direct_byte
  1156                           
  1157                           	movf (main@contador),w
  1158  07ED  0827               	movwf fsr
  1159  07EE  0084               	movlw	9
  1160  07EF  3009               	subwf	fsr,w
  1161  07F0  0204               skipnc
  1162  07F1  1803               goto l777
  1163  07F2  2EB2               movlw high(S975)
  1164  07F3  3000               movwf pclath
  1165  07F4  008A               	clrc
  1166  07F5  1003               	rlf fsr,w
  1167  07F6  0D04               	addlw low(S975)
  1168  07F7  3E03               	movwf pc
  1169  07F8  0082               psect	swtext1,local,class=CONST,delta=2
  1170                           global __pswtext1
  1171                           __pswtext1:
  1172  0003                     S975:
  1173  0003                     	ljmp	l791
  1174  0003  118A  2F1A         	ljmp	l805
  1175  0005  118A  2F36         	ljmp	l815
  1176  0007  118A  2F46         	ljmp	l825
  1177  0009  118A  2F53         	ljmp	l839
  1178  000B  118A  2F72         	ljmp	l849
  1179  000D  118A  2F85         	ljmp	l863
  1180  000F  118A  2FA4         	ljmp	l877
  1181  0011  118A  2FC6         	ljmp	l887
  1182  0013  118A  2FD6         psect	maintext
  1183                           
  1184                           	line	215
  1185                           	
  1186                           l37:	
  1187  07F9                     	goto	l777
  1188  07F9  2EB2               	line	217
  1189                           	
  1190                           l47:	
  1191  07FA                     	line	119
  1192                           	goto	l777
  1193  07FA  2EB2               	
  1194                           l48:	
  1195  07FB                     	line	222
  1196                           ;Main.c: 217: }
  1197                           ;Main.c: 221: return;
  1198                           	
  1199                           l49:	
  1200  07FB                     	global	start
  1201                           	ljmp	start
  1202  07FB  118A  2801         	opt stack 0
  1203                           GLOBAL	__end_of_main
  1204                           	__end_of_main:
  1205  07FD                     	signat	_main,88
  1206                           	global	_Apagar
  1207                           
  1208 ;; *************** function _Apagar *****************
  1209 ;; Defined at:
  1210 ;;		line 224 in file "Main.c"
  1211 ;; Parameters:    Size  Location     Type
  1212 ;;		None
  1213 ;; Auto vars:     Size  Location     Type
  1214 ;;		None
  1215 ;; Return value:  Size  Location     Type
  1216 ;;		None               void
  1217 ;; Registers used:
  1218 ;;		status,2
  1219 ;; Tracked objects:
  1220 ;;		On entry : 0/0
  1221 ;;		On exit  : 0/0
  1222 ;;		Unchanged: 0/0
  1223 ;; Data sizes:     COMMON   BANK0   BANK1
  1224 ;;      Params:         0       0       0
  1225 ;;      Locals:         0       0       0
  1226 ;;      Temps:          0       0       0
  1227 ;;      Totals:         0       0       0
  1228 ;;Total ram usage:        0 bytes
  1229 ;; Hardware stack levels used:    1
  1230 ;; This function calls:
  1231 ;;		Nothing
  1232 ;; This function is called by:
  1233 ;;		_main
  1234 ;; This function uses a non-reentrant model
  1235 ;;
  1236                           psect	text1,local,class=CODE,delta=2,merge=1
  1237                           	line	224
  1238                           global __ptext1
  1239                           __ptext1:	;psect for function _Apagar
  1240  0690                     psect	text1
  1241                           	file	"Main.c"
  1242                           	line	224
  1243                           	global	__size_of_Apagar
  1244                           	__size_of_Apagar	equ	__end_of_Apagar-_Apagar
  1245  0006                     	
  1246                           _Apagar:	
  1247  0690                     ;incstack = 0
  1248                           	opt	stack 5
  1249                           ; Regs used in _Apagar: [status,2]
  1250                           	line	225
  1251                           	
  1252                           l741:	
  1253  0690                     ;Main.c: 225: PORTA = 0;
  1254                           	bcf	status, 5	;RP0=0, select bank0
  1255  0690  1283               	bcf	status, 6	;RP1=0, select bank0
  1256  0691  1303               	clrf	(5)	;volatile
  1257  0692  0185               	line	226
  1258                           ;Main.c: 226: PORTB = 0;
  1259                           	clrf	(6)	;volatile
  1260  0693  0186               	line	227
  1261                           ;Main.c: 227: PORTC = 0;
  1262                           	clrf	(7)	;volatile
  1263  0694  0187               	line	229
  1264                           	
  1265                           l52:	
  1266  0695                     	return
  1267  0695  0008               	opt stack 0
  1268                           GLOBAL	__end_of_Apagar
  1269                           	__end_of_Apagar:
  1270  0696                     	signat	_Apagar,88
  1271                           global	___latbits
  1272                           ___latbits	equ	1
  1273  0001                     	global	btemp
  1274                           	btemp set 07Ch
  1275  007C                     
  1276                           	DABS	1,124,2	;btemp
  1277                           	global	wtemp
  1278                           	global	wtemp0
  1279                           	wtemp set btemp
  1280  007C                     	wtemp0 set btemp
  1281  007C                     	global	wtemp1
  1282                           	wtemp1 set btemp+2
  1283  007E                     	global	wtemp2
  1284                           	wtemp2 set btemp+4
  1285  0080                     	global	wtemp3
  1286                           	wtemp3 set btemp+6
  1287  0082                     	global	wtemp4
  1288                           	wtemp4 set btemp+8
  1289  0084                     	global	wtemp5
  1290                           	wtemp5 set btemp+10
  1291  0086                     	global	wtemp6
  1292                           	wtemp6 set btemp+1
  1293  007D                     	global	ttemp
  1294                           	global	ttemp0
  1295                           	ttemp set btemp
  1296  007C                     	ttemp0 set btemp
  1297  007C                     	global	ttemp1
  1298                           	ttemp1 set btemp+3
  1299  007F                     	global	ttemp2
  1300                           	ttemp2 set btemp+6
  1301  0082                     	global	ttemp3
  1302                           	ttemp3 set btemp+9
  1303  0085                     	global	ttemp4
  1304                           	ttemp4 set btemp+1
  1305  007D                     	global	ltemp
  1306                           	global	ltemp0
  1307                           	ltemp set btemp
  1308  007C                     	ltemp0 set btemp
  1309  007C                     	global	ltemp1
  1310                           	ltemp1 set btemp+4
  1311  0080                     	global	ltemp2
  1312                           	ltemp2 set btemp+8
  1313  0084                     	global	ltemp3
  1314                           	ltemp3 set btemp+2
  1315  007E                     	end


Data Sizes:
    Strings     0
    Constant    4
    Data        0
    BSS         0
    Persistent  0
    Stack       0

Auto Spaces:
    Space          Size  Autos    Used
    COMMON            0      0       0
    BANK0            92      9       9
    BANK1            84      0       0

Pointer List with Targets:

    None.

Critical Paths under _main in COMMON

    None.

Critical Paths under _main in BANK0

    None.

Critical Paths under _main in BANK1

    None.

Call Graph Tables:

 ---------------------------------------------------------------------------------
 (Depth) Function   	        Calls       Base Space   Used Autos Params    Refs
 ---------------------------------------------------------------------------------
 (0) _main                                                 9     9      0      49
                                              0 BANK0      9     9      0
                             _Apagar
 ---------------------------------------------------------------------------------
 (1) _Apagar                                               0     0      0       0
 ---------------------------------------------------------------------------------
 Estimated maximum stack depth 1
 ---------------------------------------------------------------------------------

 Call Graph Graphs:

 _main (ROOT)
   _Apagar

 Address spaces:
Name               Size   Autos  Total    Cost      Usage
BITCOMMON            0      0       0       0        0.0%
EEDATA              80      0       0       0        0.0%
NULL                 0      0       0       0        0.0%
CODE                 0      0       0       0        0.0%
BITSFR0              0      0       0       1        0.0%
SFR0                 0      0       0       1        0.0%
COMMON               0      0       0       1        0.0%
BITSFR1              0      0       0       2        0.0%
SFR1                 0      0       0       2        0.0%
STACK                0      0       0       2        0.0%
BITBANK0            5C      0       0       3        0.0%
BANK0               5C      9       9       4        9.8%
BITSFR3              0      0       0       4        0.0%
SFR3                 0      0       0       4        0.0%
BITBANK1            54      0       0       5        0.0%
BITSFR2              0      0       0       5        0.0%
SFR2                 0      0       0       5        0.0%
BANK1               54      0       0       6        0.0%
ABS                  0      0       0       7        0.0%
DATA                 0      0       0       8        0.0%


Microchip Technology PIC Macro Assembler V1.33 build 59893 
Symbol Table                                                                                   Thu Oct 22 22:04:37 2015

                      pc 0002              __CFG_CP$OFF 0000                       l30 06B2  
                     l31 06D6                       l40 0753                       l32 06DD  
                     l41 0772                       l33 06F8                       l42 0785  
                     l34 0719                       l35 07E8                       l43 07A4  
                     l52 0695                       l44 07C6                       l36 071A  
                     l37 07F9                       l45 07D6                       l29 06B1  
                     l46 07E6                       l38 0736                       l47 07FA  
                     l39 0746                       l48 07FB                       l49 07FB  
                     u50 06CB                       u51 06CA                       u60 06DC  
                     u61 06DB                       u70 06F5                       u71 06F4  
                     u55 06C7                       u80 0712                       u81 0711  
                     u75 06F1                       u85 070E                       u97 0727  
                     fsr 0004                      S975 0003              __CFG_LVP$ON 0000  
                    l801 0733                      l811 0743                      l803 0734  
                    l741 0690                      l821 0750                      l813 0744  
                    l805 0736                      l831 075D                      l823 0751  
                    l815 0746                      l807 0739                      l751 06A3  
                    l743 0696                      l841 0775                      l833 0766  
                    l825 0753                      l817 0749                      l809 073F  
                    l761 06A8                      l753 06A4                      l745 0698  
                    l851 0788                      l843 0778                      l835 076C  
                    l827 0756                      l819 074C                      l771 06AD  
                    l763 06A9                      l755 06A5                      l747 069E  
                    l861 079F                      l853 078B                      l845 077C  
                    l837 0770                      l829 0759                      l781 06D6  
                    l773 06AE                      l765 06AA                      l757 06A6  
                    l749 06A0                      l871 07B2                      l863 07A4  
                    l855 078C                      l847 0780                      l839 0772  
                    l791 071A                      l783 06DD                      l775 06AF  
                    l767 06AB                      l759 06A7                      l881 07CF  
                    l873 07B6                      l865 07A7                      l857 0790  
                    l849 0785                      l793 071D                      l785 06F5  
                    l777 06B2                      l769 06AC                      l891 07DF  
                    l883 07D0                      l875 07BF                      l867 07AD  
                    l859 0799                      l795 0723                      l787 06F8  
                    l779 06CB                      l973 07ED                      l893 07E0  
                    l885 07D1                      l877 07C6                      l869 07AE  
                    l797 072C                      l789 0712                      l895 07E1  
                    l887 07D6                      l879 07C9                      l799 0732  
                    l897 07E7                      l889 07D9                      l899 07E8  
                    _GIE 005F                      u107 0761                      u117 0794  
                    u127 07BA             __CFG_CPD$OFF 0000                      fsr0 0004  
           __CFG_FOSC$XT 0000                     _PEIE 005E             __CFG_WRT$OFF 0000  
                   _main 0696                     btemp 007C            __CFG_BOREN$ON 0000  
                   ltemp 007C                     start 0001                     ttemp 007C  
                   wtemp 007C             main@contador 0027                    ?_main 0020  
          __CFG_WDTE$OFF 0000                    _PORTA 0005                    _PORTB 0006  
                  _PORTC 0007                    pclath 000A                    ltemp0 007C  
                  ltemp1 0080                    ltemp2 0084                    ltemp3 007E  
                  ttemp0 007C                    ttemp1 007F                    ttemp2 0082  
                  ttemp3 0085                    ttemp4 007D                    status 0003  
                  wtemp0 007C                    wtemp1 007E                    wtemp2 0080  
                  wtemp3 0082                    wtemp4 0084                    wtemp5 0086  
                  wtemp6 007D          __initialization 07FD             __end_of_main 07FD  
                 ??_main 0020                   _Apagar 0690           __CFG_PWRTE$OFF 0000  
                 main@NO 001B                   main@SI 001D  __end_of__initialization 07FD  
         __pcstackCOMMON 0000                  ?_Apagar 0020               __pmaintext 0696  
             __stringtab 0015          __size_of_Apagar 0006                  __ptext1 0690  
   end_of_initialization 07FD                _PORTBbits 0006                _TRISAbits 0085  
              _TRISBbits 0086                _TRISCbits 0087               main@inicio 0025  
         __end_of_Apagar 0696           __end_ofmain@NO 001D           __end_ofmain@SI 001F  
    start_initialization 07FD                 ??_Apagar 0000                ___latbits 0001  
          __pcstackBANK0 0020                __pstrings 0015                __pswtext1 0003  
            __stringbase 001A       __end_of__stringtab 001B            __size_of_main 0167  
              stringcode 0015                 stringdir 0015                 stringtab 0015  
